target datalayout = "e-m:e-p270:32:32-p271:32:32-p272:64:64-i64:64-i128:128-f80:128-n8:16:32:64-S128"
target triple = "x86_64-pc-linux-gnu"

%struct._zend_executor_globals = type { %struct._zval_struct, %struct._zval_struct, [32 x ptr], ptr, ptr, %struct._zend_array, %struct._zend_array, ptr, i32, i32, ptr, ptr, ptr, ptr, ptr, ptr, i64, ptr, ptr, i32, i32, i64, i32, i32, i32, i8, i8, %struct.zend_atomic_bool_s, %struct.zend_atomic_bool_s, ptr, i64, ptr, ptr, %struct._zend_array, %struct._zend_array, i32, i8, %struct._zval_struct, %struct._zval_struct, %struct._zend_stack, %struct._zend_stack, %struct._zend_stack, ptr, i32, i32, i64, ptr, ptr, ptr, %struct._zend_objects_store, ptr, ptr, ptr, [3 x %struct._zend_op], ptr, i8, i8, i64, i32, i32, ptr, [16 x %struct._HashTableIterator], ptr, %union._zend_function, %struct._zend_op, %struct._zend_array, i64, %struct.zend_get_gc_buffer, ptr, ptr, ptr, i64, i8, i32, ptr, ptr, i64, %struct._zend_call_stack, i64, i64, [6 x ptr] }
%struct.zend_atomic_bool_s = type { i8 }
%struct._zval_struct = type { %union._zend_value, %union.anon, %union.anon.2 }
%union._zend_value = type { i64 }
%union.anon = type { i32 }
%union.anon.2 = type { i32 }
%struct._zend_stack = type { i32, i32, i32, ptr }
%struct._zend_objects_store = type { ptr, i32, i32, i32 }
%struct._HashTableIterator = type { ptr, i32, i32 }
%union._zend_function = type { %struct._zend_op_array }
%struct._zend_op_array = type { i8, [3 x i8], i32, ptr, ptr, ptr, i32, i32, ptr, ptr, ptr, ptr, i32, i32, i32, i32, ptr, ptr, ptr, ptr, ptr, i32, i32, ptr, ptr, ptr, i32, i32, i32, i32, ptr, ptr, [6 x ptr] }
%struct._zend_op = type { ptr, %union._znode_op, %union._znode_op, %union._znode_op, i32, i32, i8, i8, i8, i8 }
%union._znode_op = type { i32 }
%struct._zend_array = type { %struct._zend_refcounted_h, %union.anon.4, i32, %union.anon.6, i32, i32, i32, i32, i64, ptr }
%struct._zend_refcounted_h = type { i32, %union.anon.3 }
%union.anon.3 = type { i32 }
%union.anon.4 = type { i32 }
%union.anon.6 = type { ptr }
%struct.zend_get_gc_buffer = type { ptr, ptr, ptr }
%struct._zend_call_stack = type { ptr, i64 }
%struct._zend_class_entry = type { i8, ptr, %union.anon.8, i32, i32, i32, i32, ptr, ptr, ptr, %struct._zend_array, %struct._zend_array, %struct._zend_array, ptr, ptr, ptr, ptr, ptr, ptr, ptr, ptr, ptr, ptr, ptr, ptr, ptr, ptr, ptr, ptr, ptr, ptr, ptr, %union.anon.9, ptr, ptr, ptr, ptr, i32, i32, %union.anon.10, ptr, ptr, ptr, ptr, i32, ptr, ptr, %union.anon.11 }
%union.anon.8 = type { ptr }
%union.anon.9 = type { ptr }
%union.anon.10 = type { ptr }
%union.anon.11 = type { %struct.anon.12 }
%struct.anon.12 = type { ptr, i32, i32 }
%struct._zend_execute_data = type { ptr, ptr, ptr, ptr, %struct._zval_struct, ptr, ptr, ptr, ptr }
%struct._ze_xmlwriter_object = type { ptr, ptr, %struct._zend_object }
%struct._zend_object = type { %struct._zend_refcounted_h, i32, ptr, ptr, ptr, [1 x %struct._zval_struct] }

@xmlwriter_class_entry_ce = internal global ptr null, align 8
@executor_globals = external global %struct._zend_executor_globals, align 8
@.str.23 = private unnamed_addr constant [31 x i8] c"Unable to create output buffer\00", align 1

; Function Attrs: nounwind uwtable
define internal ptr @xmlwriter_object_new(ptr noundef %0) #0 {
  %2 = alloca ptr, align 8
  %3 = alloca i64, align 8
  %4 = alloca ptr, align 8
  %5 = alloca ptr, align 8
  %6 = alloca ptr, align 8
  %7 = alloca ptr, align 8
  store ptr %0, ptr %6, align 8
  %8 = load ptr, ptr %6, align 8
  store i64 72, ptr %3, align 8
  store ptr %8, ptr %4, align 8
  %9 = load i64, ptr %3, align 8
  %10 = load ptr, ptr %4, align 8
  store ptr %10, ptr %2, align 8
  %11 = load ptr, ptr %2, align 8
  %12 = getelementptr inbounds %struct._zend_class_entry, ptr %11, i32 0, i32 5
  %13 = load i32, ptr %12, align 8
  %14 = load ptr, ptr %2, align 8
  %15 = getelementptr inbounds %struct._zend_class_entry, ptr %14, i32 0, i32 4
  %16 = load i32, ptr %15, align 4
  %17 = and i32 %16, 2048
  %18 = icmp ne i32 %17, 0
  %19 = select i1 %18, i32 0, i32 1
  %20 = sub nsw i32 %13, %19
  %21 = sext i32 %20 to i64
  %22 = mul i64 16, %21
  %23 = add i64 %9, %22
  %24 = call noalias ptr @_emalloc(i64 noundef %23) #11
  store ptr %24, ptr %5, align 8
  %25 = load ptr, ptr %5, align 8
  %26 = load i64, ptr %3, align 8
  %27 = sub i64 %26, 56
  call void @llvm.memset.p0.i64(ptr align 1 %25, i8 0, i64 %27, i1 false)
  %28 = load ptr, ptr %5, align 8
  store ptr %28, ptr %7, align 8
  %29 = load ptr, ptr %7, align 8
  %30 = getelementptr inbounds %struct._ze_xmlwriter_object, ptr %29, i32 0, i32 2
  %31 = load ptr, ptr %6, align 8
  call void @zend_object_std_init(ptr noundef %30, ptr noundef %31)
  %32 = load ptr, ptr %7, align 8
  %33 = getelementptr inbounds %struct._ze_xmlwriter_object, ptr %32, i32 0, i32 2
  %34 = load ptr, ptr %6, align 8
  call void @object_properties_init(ptr noundef %33, ptr noundef %34)
  %35 = load ptr, ptr %7, align 8
  %36 = getelementptr inbounds %struct._ze_xmlwriter_object, ptr %35, i32 0, i32 2
  ret ptr %36
}

; Function Attrs: nounwind uwtable
define internal ptr @php_xmlwriter_fetch_object(ptr noundef %0) #0 {
  %2 = alloca ptr, align 8
  store ptr %0, ptr %2, align 8
  %3 = load ptr, ptr %2, align 8
  %4 = getelementptr inbounds i8, ptr %3, i64 -16
  ret ptr %4
}

; Function Attrs: nounwind uwtable
define hidden void @zif_xmlwriter_open_memory(ptr noundef %0, ptr noundef %1) #0 {
  %3 = alloca ptr, align 8
  %4 = alloca ptr, align 8
  %5 = alloca ptr, align 8
  %6 = alloca ptr, align 8
  %7 = alloca ptr, align 8
  %8 = alloca ptr, align 8
  %9 = alloca ptr, align 8
  %10 = alloca ptr, align 8
  store ptr %0, ptr %4, align 8
  store ptr %1, ptr %5, align 8
  %11 = load ptr, ptr %4, align 8
  %12 = getelementptr inbounds %struct._zend_execute_data, ptr %11, i32 0, i32 4
  store ptr %12, ptr %3, align 8
  %13 = load ptr, ptr %3, align 8
  %14 = getelementptr inbounds %struct._zval_struct, ptr %13, i32 0, i32 1
  %15 = load i8, ptr %14, align 8
  %16 = zext i8 %15 to i32
  %17 = icmp eq i32 %16, 8
  br i1 %17, label %18, label %21

18:                                               ; preds = %2
  %19 = load ptr, ptr %4, align 8
  %20 = getelementptr inbounds %struct._zend_execute_data, ptr %19, i32 0, i32 4
  br label %22

21:                                               ; preds = %2
  br label %22

22:                                               ; preds = %21, %18
  %23 = phi ptr [ %20, %18 ], [ null, %21 ]
  store ptr %23, ptr %8, align 8
  store ptr null, ptr %9, align 8
  %24 = load ptr, ptr %4, align 8
  %25 = getelementptr inbounds %struct._zend_execute_data, ptr %24, i32 0, i32 4
  %26 = getelementptr inbounds %struct._zval_struct, ptr %25, i32 0, i32 2
  %27 = load i32, ptr %26, align 4
  %28 = icmp eq i32 %27, 0
  %29 = xor i1 %28, true
  %30 = xor i1 %29, true
  %31 = zext i1 %30 to i32
  %32 = sext i32 %31 to i64
  %33 = icmp ne i64 %32, 0
  br i1 %33, label %34, label %35

34:                                               ; preds = %22
  br label %36

35:                                               ; preds = %22
  call void @zend_wrong_parameters_none_error()
  br label %36

36:                                               ; preds = %35, %34
  %37 = phi i32 [ 0, %34 ], [ -1, %35 ]
  %38 = icmp eq i32 %37, -1
  br i1 %38, label %39, label %44

39:                                               ; preds = %36
  br label %40

40:                                               ; preds = %39
  %41 = load ptr, ptr getelementptr inbounds (%struct._zend_executor_globals, ptr @executor_globals, i32 0, i32 50), align 8
  %42 = icmp ne ptr %41, null
  call void @llvm.assume(i1 %42)
  br label %131

43:                                               ; No predecessors!
  br label %44

44:                                               ; preds = %43, %36
  %45 = load ptr, ptr %8, align 8
  %46 = icmp ne ptr %45, null
  br i1 %46, label %47, label %52

47:                                               ; preds = %44
  %48 = load ptr, ptr %8, align 8
  %49 = getelementptr inbounds %struct._zval_struct, ptr %48, i32 0, i32 0
  %50 = load ptr, ptr %49, align 8
  %51 = call ptr @php_xmlwriter_fetch_object(ptr noundef %50)
  store ptr %51, ptr %9, align 8
  br label %52

52:                                               ; preds = %47, %44
  %53 = call ptr @xmlBufferCreate()
  store ptr %53, ptr %7, align 8
  %54 = load ptr, ptr %7, align 8
  %55 = icmp eq ptr %54, null
  br i1 %55, label %56, label %63

56:                                               ; preds = %52
  call void (ptr, i32, ptr, ...) @php_error_docref(ptr noundef null, i32 noundef 2, ptr noundef @.str.23)
  br label %57

57:                                               ; preds = %56
  br label %58

58:                                               ; preds = %57
  %59 = load ptr, ptr %5, align 8
  %60 = getelementptr inbounds %struct._zval_struct, ptr %59, i32 0, i32 1
  store i32 2, ptr %60, align 8
  br label %61

61:                                               ; preds = %58
  br label %131

62:                                               ; No predecessors!
  br label %63

63:                                               ; preds = %62, %52
  %64 = load ptr, ptr %7, align 8
  %65 = call ptr @xmlNewTextWriterMemory(ptr noundef %64, i32 noundef 0)
  store ptr %65, ptr %6, align 8
  %66 = load ptr, ptr %6, align 8
  %67 = icmp ne ptr %66, null
  br i1 %67, label %76, label %68

68:                                               ; preds = %63
  %69 = load ptr, ptr %7, align 8
  call void @xmlBufferFree(ptr noundef %69)
  br label %70

70:                                               ; preds = %68
  br label %71

71:                                               ; preds = %70
  %72 = load ptr, ptr %5, align 8
  %73 = getelementptr inbounds %struct._zval_struct, ptr %72, i32 0, i32 1
  store i32 2, ptr %73, align 8
  br label %74

74:                                               ; preds = %71
  br label %131

75:                                               ; No predecessors!
  br label %76

76:                                               ; preds = %75, %63
  %77 = load ptr, ptr %8, align 8
  %78 = icmp ne ptr %77, null
  br i1 %78, label %79, label %110

79:                                               ; preds = %76
  %80 = load ptr, ptr %9, align 8
  %81 = getelementptr inbounds %struct._ze_xmlwriter_object, ptr %80, i32 0, i32 0
  %82 = load ptr, ptr %81, align 8
  %83 = icmp ne ptr %82, null
  br i1 %83, label %84, label %88

84:                                               ; preds = %79
  %85 = load ptr, ptr %9, align 8
  %86 = getelementptr inbounds %struct._ze_xmlwriter_object, ptr %85, i32 0, i32 0
  %87 = load ptr, ptr %86, align 8
  call void @xmlFreeTextWriter(ptr noundef %87)
  br label %88

88:                                               ; preds = %84, %79
  %89 = load ptr, ptr %9, align 8
  %90 = getelementptr inbounds %struct._ze_xmlwriter_object, ptr %89, i32 0, i32 1
  %91 = load ptr, ptr %90, align 8
  %92 = icmp ne ptr %91, null
  br i1 %92, label %93, label %97

93:                                               ; preds = %88
  %94 = load ptr, ptr %9, align 8
  %95 = getelementptr inbounds %struct._ze_xmlwriter_object, ptr %94, i32 0, i32 1
  %96 = load ptr, ptr %95, align 8
  call void @xmlBufferFree(ptr noundef %96)
  br label %97

97:                                               ; preds = %93, %88
  %98 = load ptr, ptr %6, align 8
  %99 = load ptr, ptr %9, align 8
  %100 = getelementptr inbounds %struct._ze_xmlwriter_object, ptr %99, i32 0, i32 0
  store ptr %98, ptr %100, align 8
  %101 = load ptr, ptr %7, align 8
  %102 = load ptr, ptr %9, align 8
  %103 = getelementptr inbounds %struct._ze_xmlwriter_object, ptr %102, i32 0, i32 1
  store ptr %101, ptr %103, align 8
  br label %104

104:                                              ; preds = %97
  br label %105

105:                                              ; preds = %104
  %106 = load ptr, ptr %5, align 8
  %107 = getelementptr inbounds %struct._zval_struct, ptr %106, i32 0, i32 1
  store i32 3, ptr %107, align 8
  br label %108

108:                                              ; preds = %105
  br label %131

109:                                              ; No predecessors!
  br label %131

110:                                              ; preds = %76
  %111 = load ptr, ptr @xmlwriter_class_entry_ce, align 8
  %112 = call ptr @xmlwriter_object_new(ptr noundef %111)
  %113 = call ptr @php_xmlwriter_fetch_object(ptr noundef %112)
  store ptr %113, ptr %9, align 8
  %114 = load ptr, ptr %6, align 8
  %115 = load ptr, ptr %9, align 8
  %116 = getelementptr inbounds %struct._ze_xmlwriter_object, ptr %115, i32 0, i32 0
  store ptr %114, ptr %116, align 8
  %117 = load ptr, ptr %7, align 8
  %118 = load ptr, ptr %9, align 8
  %119 = getelementptr inbounds %struct._ze_xmlwriter_object, ptr %118, i32 0, i32 1
  store ptr %117, ptr %119, align 8
  br label %120

120:                                              ; preds = %110
  br label %121

121:                                              ; preds = %120
  %122 = load ptr, ptr %5, align 8
  store ptr %122, ptr %10, align 8
  %123 = load ptr, ptr %9, align 8
  %124 = getelementptr inbounds %struct._ze_xmlwriter_object, ptr %123, i32 0, i32 2
  %125 = load ptr, ptr %10, align 8
  %126 = getelementptr inbounds %struct._zval_struct, ptr %125, i32 0, i32 0
  store ptr %124, ptr %126, align 8
  %127 = load ptr, ptr %10, align 8
  %128 = getelementptr inbounds %struct._zval_struct, ptr %127, i32 0, i32 1
  store i32 776, ptr %128, align 8
  br label %129

129:                                              ; preds = %121
  br label %131

130:                                              ; No predecessors!
  br label %131

131:                                              ; preds = %130, %129, %109, %108, %74, %61, %40
  ret void
}