; Function Attrs: nounwind uwtable
define hidden void @zif_xmlwriter_open_memory(ptr nocapture noundef readonly %0, ptr nocapture noundef writeonly %1) #0 {
  %3 = getelementptr inbounds i8, ptr %0, i64 32
  %4 = getelementptr inbounds i8, ptr %0, i64 40
  %5 = load i8, ptr %4, align 8
  %6 = icmp eq i8 %5, 8
  %7 = getelementptr inbounds i8, ptr %0, i64 44
  %8 = load i32, ptr %7, align 4
  %.not = icmp eq i32 %8, 0
  br i1 %.not, label %.critedge, label %9

9:                                                ; preds = %2
  tail call void @zend_wrong_parameters_none_error() #11
  %10 = load ptr, ptr getelementptr inbounds (%struct._zend_executor_globals, ptr @executor_globals, i64 0, i32 50), align 8
  %11 = icmp ne ptr %10, null
  tail call void @llvm.assume(i1 %11)
  br label %50

.critedge:                                        ; preds = %2
  br i1 %6, label %12, label %15

12:                                               ; preds = %.critedge
  %13 = load ptr, ptr %3, align 8
  %14 = getelementptr inbounds i8, ptr %13, i64 -16
  br label %15

15:                                               ; preds = %12, %.critedge
  %.0 = phi ptr [ %14, %12 ], [ null, %.critedge ]
  %16 = tail call ptr @xmlBufferCreate() #11
  %17 = icmp eq ptr %16, null
  br i1 %17, label %18, label %20

18:                                               ; preds = %15
  tail call void (ptr, i32, ptr, ...) @php_error_docref(ptr noundef null, i32 noundef 2, ptr noundef nonnull @.str.23) #11
  %19 = getelementptr inbounds i8, ptr %1, i64 8
  store i32 2, ptr %19, align 8
  br label %50

20:                                               ; preds = %15
  %21 = tail call ptr @xmlNewTextWriterMemory(ptr noundef nonnull %16, i32 noundef 0) #11
  %.not34 = icmp eq ptr %21, null
  br i1 %.not34, label %22, label %24

22:                                               ; preds = %20
  tail call void @xmlBufferFree(ptr noundef nonnull %16) #11
  %23 = getelementptr inbounds i8, ptr %1, i64 8
  store i32 2, ptr %23, align 8
  br label %50

24:                                               ; preds = %20
  br i1 %6, label %25, label %34

25:                                               ; preds = %24
  %26 = load ptr, ptr %.0, align 8
  %.not35 = icmp eq ptr %26, null
  br i1 %.not35, label %28, label %27

27:                                               ; preds = %25
  tail call void @xmlFreeTextWriter(ptr noundef nonnull %26) #11
  br label %28

28:                                               ; preds = %27, %25
  %29 = getelementptr inbounds i8, ptr %.0, i64 8
  %30 = load ptr, ptr %29, align 8
  %.not36 = icmp eq ptr %30, null
  br i1 %.not36, label %32, label %31

31:                                               ; preds = %28
  tail call void @xmlBufferFree(ptr noundef nonnull %30) #11
  br label %32

32:                                               ; preds = %31, %28
  store ptr %21, ptr %.0, align 8
  store ptr %16, ptr %29, align 8
  %33 = getelementptr inbounds i8, ptr %1, i64 8
  store i32 3, ptr %33, align 8
  br label %50

34:                                               ; preds = %24
  %35 = load ptr, ptr @xmlwriter_class_entry_ce, align 8
  %36 = getelementptr inbounds i8, ptr %35, i64 32
  %37 = load i32, ptr %36, align 8
  %38 = getelementptr inbounds i8, ptr %35, i64 28
  %39 = load i32, ptr %38, align 4
  %40 = lshr i32 %39, 11
  %.lobit.i = and i32 %40, 1
  %41 = xor i32 %.lobit.i, 1
  %42 = sub nsw i32 %37, %41
  %43 = sext i32 %42 to i64
  %44 = shl nsw i64 %43, 4
  %45 = add nsw i64 %44, 72
  %46 = tail call noalias ptr @_emalloc(i64 noundef %45) #13
  tail call void @llvm.memset.p0.i64(ptr noundef nonnull align 1 dereferenceable(16) %46, i8 0, i64 16, i1 false)
  %47 = getelementptr inbounds i8, ptr %46, i64 16
  tail call void @zend_object_std_init(ptr noundef nonnull %47, ptr noundef %35) #11
  tail call void @object_properties_init(ptr noundef nonnull %47, ptr noundef %35) #11
  store ptr %21, ptr %46, align 8
  %48 = getelementptr inbounds i8, ptr %46, i64 8
  store ptr %16, ptr %48, align 8
  store ptr %47, ptr %1, align 8
  %49 = getelementptr inbounds i8, ptr %1, i64 8
  store i32 776, ptr %49, align 8
  br label %50

50:                                               ; preds = %34, %32, %22, %18, %9
  ret void
}